target datalayout = "e-m:e-p270:32:32-p271:32:32-p272:64:64-i64:64-i128:128-f80:128-n8:16:32:64-S128"
target triple = "x86_64-pc-linux-gnu"

%class.RtpAudioFile = type { %class.QIODevice, ptr, ptr, i64, i64, i64, i64, %struct.rtp_frame_info }
%class.QIODevice = type { %class.QObject }
%class.QObject = type { ptr, %class.QScopedPointer }
%class.QScopedPointer = type { ptr }
%struct.rtp_frame_info = type { i64, i64, i64, i32, i32 }

; Function Attrs: mustprogress uwtable
define void @_ZN12RtpAudioFile18setFrameWriteStageEv(ptr noundef nonnull align 8 dereferenceable(96) %0) #0 align 2 {
  %2 = alloca ptr, align 8
  store ptr %0, ptr %2, align 8
  %3 = load ptr, ptr %2, align 8
  %4 = getelementptr inbounds %class.RtpAudioFile, ptr %3, i32 0, i32 1
  %5 = load ptr, ptr %4, align 8
  %6 = load ptr, ptr %5, align 8
  %7 = getelementptr inbounds ptr, ptr %6, i64 17
  %8 = load ptr, ptr %7, align 8
  %9 = call noundef zeroext i1 %8(ptr noundef nonnull align 8 dereferenceable(16) %5, i64 noundef 0)
  %10 = getelementptr inbounds %class.RtpAudioFile, ptr %3, i32 0, i32 2
  %11 = load ptr, ptr %10, align 8
  %12 = load ptr, ptr %11, align 8
  %13 = getelementptr inbounds ptr, ptr %12, i64 17
  %14 = load ptr, ptr %13, align 8
  %15 = call noundef zeroext i1 %14(ptr noundef nonnull align 8 dereferenceable(16) %11, i64 noundef 0)
  %16 = getelementptr inbounds %class.RtpAudioFile, ptr %3, i32 0, i32 3
  store i64 0, ptr %16, align 8
  %17 = getelementptr inbounds %class.RtpAudioFile, ptr %3, i32 0, i32 4
  store i64 0, ptr %17, align 8
  %18 = getelementptr inbounds %class.RtpAudioFile, ptr %3, i32 0, i32 5
  store i64 0, ptr %18, align 8
  %19 = getelementptr inbounds %class.RtpAudioFile, ptr %3, i32 0, i32 6
  store i64 0, ptr %19, align 8
  ret void
}